; Function Attrs: mustprogress nounwind uwtable
define hidden void @_ZN19metadata_Relocation23fix_metadata_relocationEv(ptr noundef nonnull align 8 dereferenceable(24) %0) local_unnamed_addr #0 align 2 {
  %2 = getelementptr inbounds i8, ptr %0, i64 20
  %3 = load i32, ptr %2, align 4
  %4 = icmp eq i32 %3, 0
  br i1 %4, label %10, label %5

5:                                                ; preds = %1
  %6 = load ptr, ptr %0, align 8
  %7 = getelementptr inbounds i8, ptr %6, i64 40
  %8 = load ptr, ptr %7, align 8
  %9 = tail call noundef ptr %8(ptr noundef nonnull align 8 dereferenceable(24) %0) #19
  tail call void @_ZN19metadata_Relocation12pd_fix_valueEPh(ptr noundef nonnull align 8 dereferenceable(24) %0, ptr noundef %9) #19
  br label %10

10:                                               ; preds = %5, %1
  ret void
}